target datalayout = "e-m:e-p270:32:32-p271:32:32-p272:64:64-i64:64-i128:128-f80:128-n8:16:32:64-S128"
target triple = "x86_64-pc-linux-gnu"

%"class.toku::locktree_manager" = type { i64, i64, %"struct.toku::lt_counters", ptr, ptr, ptr, ptr, %"class.toku::omt", %"class.std::shared_ptr", %struct.toku_mutex_t, %struct.toku_mutex_t, i64, i64, i64, i64, i64, i64, i64, %"class.toku::locktree_manager::locktree_escalator" }
%"struct.toku::lt_counters" = type { i64, i64, i64, i64, i64 }
%"class.toku::omt" = type { i8, i32, %union.anon }
%union.anon = type { %"struct.toku::omt<toku::locktree *>::omt_array" }
%"struct.toku::omt<toku::locktree *>::omt_array" = type { i32, i32, ptr }
%"class.std::shared_ptr" = type { %"class.std::__shared_ptr" }
%"class.std::__shared_ptr" = type { ptr, %"class.std::__shared_count" }
%"class.std::__shared_count" = type { ptr }
%struct.toku_mutex_t = type { %union.pthread_mutex_t, ptr }
%union.pthread_mutex_t = type { %struct.__pthread_mutex_s }
%struct.__pthread_mutex_s = type { i32, i32, i32, i32, i32, i16, i16, %struct.__pthread_internal_list }
%struct.__pthread_internal_list = type { ptr, ptr }
%"class.toku::locktree_manager::locktree_escalator" = type <{ %struct.toku_mutex_t, %struct.toku_cond_t, i8, [7 x i8] }>
%struct.toku_cond_t = type { %union.pthread_cond_t, ptr }
%union.pthread_cond_t = type { %struct.__pthread_cond_s }
%struct.__pthread_cond_s = type { %union.__atomic_wide_counter, %union.__atomic_wide_counter, [2 x i32], [2 x i32], i32, i32, [2 x i32] }
%union.__atomic_wide_counter = type { i64 }
%"struct.toku::omt<toku::locktree *>::omt_tree" = type { %"class.toku::omt_internal::subtree_templated", i32, ptr }
%"class.toku::omt_internal::subtree_templated" = type { i32 }
%"class.toku::omt_internal::omt_node_templated" = type <{ ptr, i32, %"class.toku::omt_internal::subtree_templated", %"class.toku::omt_internal::subtree_templated", [4 x i8] }>

; Function Attrs: inlinehint mustprogress nounwind uwtable
define linkonce_odr void @_Z23toku_instr_cond_destroyRP8PSI_cond(ptr noundef nonnull align 8 dereferenceable(8) %0) #7 comdat {
  %2 = alloca ptr, align 8
  store ptr %0, ptr %2, align 8, !tbaa !178
  ret void
}

; Function Attrs: inlinehint mustprogress nounwind uwtable
define linkonce_odr void @_ZN4toku12omt_internal17subtree_templatedILb0EE11set_to_nullEv(ptr noundef nonnull align 4 dereferenceable(4) %0) #7 comdat align 2 {
  %2 = alloca ptr, align 8
  store ptr %0, ptr %2, align 8, !tbaa !68
  %3 = load ptr, ptr %2, align 8
  %4 = getelementptr inbounds nuw %"class.toku::omt_internal::subtree_templated", ptr %3, i32 0, i32 0
  store i32 -1, ptr %4, align 4, !tbaa !187
  ret void
}

; Function Attrs: inlinehint mustprogress nounwind uwtable
define linkonce_odr noundef i32 @_ZNK4toku12omt_internal17subtree_templatedILb0EE9get_indexEv(ptr noundef nonnull align 4 dereferenceable(4) %0) #7 comdat align 2 {
  %2 = alloca ptr, align 8
  store ptr %0, ptr %2, align 8, !tbaa !68
  %3 = load ptr, ptr %2, align 8
  %4 = getelementptr inbounds nuw %"class.toku::omt_internal::subtree_templated", ptr %3, i32 0, i32 0
  %5 = load i32, ptr %4, align 4, !tbaa !187
  ret i32 %5
}

; Function Attrs: inlinehint mustprogress uwtable
define linkonce_odr noundef zeroext i1 @_ZNK4toku12omt_internal17subtree_templatedILb0EE7is_nullEv(ptr noundef nonnull align 4 dereferenceable(4) %0) #3 comdat align 2 {
  %2 = alloca ptr, align 8
  store ptr %0, ptr %2, align 8, !tbaa !68
  %3 = load ptr, ptr %2, align 8
  %4 = call noundef i32 @_ZNK4toku12omt_internal17subtree_templatedILb0EE9get_indexEv(ptr noundef nonnull align 4 dereferenceable(4) %3)
  %5 = icmp eq i32 -1, %4
  ret i1 %5
}

; Function Attrs: inlinehint mustprogress uwtable
define linkonce_odr void @_Z17toku_cond_destroyP11toku_cond_t(ptr noundef %0) #3 comdat {
  %2 = alloca ptr, align 8
  %3 = alloca i32, align 4
  store ptr %0, ptr %2, align 8, !tbaa !111
  %4 = load ptr, ptr %2, align 8, !tbaa !111
  %5 = getelementptr inbounds nuw %struct.toku_cond_t, ptr %4, i32 0, i32 1
  call void @_Z23toku_instr_cond_destroyRP8PSI_cond(ptr noundef nonnull align 8 dereferenceable(8) %5)
  call void @llvm.lifetime.start.p0(i64 4, ptr %3) #17
  %6 = load ptr, ptr %2, align 8, !tbaa !111
  %7 = getelementptr inbounds nuw %struct.toku_cond_t, ptr %6, i32 0, i32 0
  %8 = call i32 @pthread_cond_destroy(ptr noundef %7) #17
  store i32 %8, ptr %3, align 4, !tbaa !40
  call void @llvm.lifetime.end.p0(i64 4, ptr %3) #17
  ret void
}

; Function Attrs: inlinehint mustprogress nounwind uwtable
define linkonce_odr void @_Z24toku_instr_mutex_destroyRP9PSI_mutex(ptr noundef nonnull align 8 dereferenceable(8) %0) #7 comdat {
  %2 = alloca ptr, align 8
  store ptr %0, ptr %2, align 8, !tbaa !148
  ret void
}

; Function Attrs: mustprogress uwtable
define linkonce_odr void @_ZN4toku3omtIPNS_8locktreeES2_Lb0EE5clearEv(ptr noundef nonnull align 8 dereferenceable(24) %0) #0 comdat align 2 {
  %2 = alloca ptr, align 8
  store ptr %0, ptr %2, align 8, !tbaa !34
  %3 = load ptr, ptr %2, align 8
  %4 = getelementptr inbounds nuw %"class.toku::omt", ptr %3, i32 0, i32 0
  %5 = load i8, ptr %4, align 8, !tbaa !48, !range !49, !noundef !50
  %6 = trunc i8 %5 to i1
  br i1 %6, label %7, label %12

7:                                                ; preds = %1
  %8 = getelementptr inbounds nuw %"class.toku::omt", ptr %3, i32 0, i32 2
  %9 = getelementptr inbounds nuw %"struct.toku::omt<toku::locktree *>::omt_array", ptr %8, i32 0, i32 0
  store i32 0, ptr %9, align 8, !tbaa !51
  %10 = getelementptr inbounds nuw %"class.toku::omt", ptr %3, i32 0, i32 2
  %11 = getelementptr inbounds nuw %"struct.toku::omt<toku::locktree *>::omt_array", ptr %10, i32 0, i32 1
  store i32 0, ptr %11, align 4, !tbaa !51
  br label %17

12:                                               ; preds = %1
  %13 = getelementptr inbounds nuw %"class.toku::omt", ptr %3, i32 0, i32 2
  %14 = getelementptr inbounds nuw %"struct.toku::omt<toku::locktree *>::omt_tree", ptr %13, i32 0, i32 0
  call void @_ZN4toku12omt_internal17subtree_templatedILb0EE11set_to_nullEv(ptr noundef nonnull align 4 dereferenceable(4) %14)
  %15 = getelementptr inbounds nuw %"class.toku::omt", ptr %3, i32 0, i32 2
  %16 = getelementptr inbounds nuw %"struct.toku::omt<toku::locktree *>::omt_tree", ptr %15, i32 0, i32 1
  store i32 0, ptr %16, align 4, !tbaa !51
  br label %17

17:                                               ; preds = %12, %7
  ret void
}

; Function Attrs: mustprogress uwtable
define linkonce_odr noundef i32 @_ZNK4toku3omtIPNS_8locktreeES2_Lb0EE7nweightERKNS_12omt_internal17subtree_templatedILb0EEE(ptr noundef nonnull align 8 dereferenceable(24) %0, ptr noundef nonnull align 4 dereferenceable(4) %1) #0 comdat align 2 {
  %3 = alloca i32, align 4
  %4 = alloca ptr, align 8
  %5 = alloca ptr, align 8
  store ptr %0, ptr %4, align 8, !tbaa !34
  store ptr %1, ptr %5, align 8, !tbaa !68
  %6 = load ptr, ptr %4, align 8
  %7 = load ptr, ptr %5, align 8, !tbaa !68
  %8 = call noundef zeroext i1 @_ZNK4toku12omt_internal17subtree_templatedILb0EE7is_nullEv(ptr noundef nonnull align 4 dereferenceable(4) %7)
  br i1 %8, label %9, label %10

9:                                                ; preds = %2
  store i32 0, ptr %3, align 4
  br label %20

10:                                               ; preds = %2
  %11 = getelementptr inbounds nuw %"class.toku::omt", ptr %6, i32 0, i32 2
  %12 = getelementptr inbounds nuw %"struct.toku::omt<toku::locktree *>::omt_tree", ptr %11, i32 0, i32 2
  %13 = load ptr, ptr %12, align 8, !tbaa !51
  %14 = load ptr, ptr %5, align 8, !tbaa !68
  %15 = call noundef i32 @_ZNK4toku12omt_internal17subtree_templatedILb0EE9get_indexEv(ptr noundef nonnull align 4 dereferenceable(4) %14)
  %16 = zext i32 %15 to i64
  %17 = getelementptr inbounds nuw %"class.toku::omt_internal::omt_node_templated", ptr %13, i64 %16
  %18 = getelementptr inbounds nuw %"class.toku::omt_internal::omt_node_templated", ptr %17, i32 0, i32 1
  %19 = load i32, ptr %18, align 8, !tbaa !184
  store i32 %19, ptr %3, align 4
  br label %20

20:                                               ; preds = %10, %9
  %21 = load i32, ptr %3, align 4
  ret i32 %21
}

; Function Attrs: mustprogress uwtable
define void @_ZN4toku16locktree_manager18locktree_escalator7destroyEv(ptr noundef nonnull align 8 dereferenceable(105) %0) #0 align 2 {
  %2 = alloca ptr, align 8
  store ptr %0, ptr %2, align 8, !tbaa !83
  %3 = load ptr, ptr %2, align 8
  %4 = getelementptr inbounds nuw %"class.toku::locktree_manager::locktree_escalator", ptr %3, i32 0, i32 1
  call void @_Z17toku_cond_destroyP11toku_cond_t(ptr noundef %4)
  %5 = getelementptr inbounds nuw %"class.toku::locktree_manager::locktree_escalator", ptr %3, i32 0, i32 0
  call void @_Z18toku_mutex_destroyP12toku_mutex_t(ptr noundef %5)
  ret void
}

; Function Attrs: inlinehint mustprogress uwtable
define linkonce_odr void @_Z18toku_mutex_destroyP12toku_mutex_t(ptr noundef %0) #3 comdat {
  %2 = alloca ptr, align 8
  %3 = alloca i32, align 4
  store ptr %0, ptr %2, align 8, !tbaa !38
  %4 = load ptr, ptr %2, align 8, !tbaa !38
  %5 = getelementptr inbounds nuw %struct.toku_mutex_t, ptr %4, i32 0, i32 1
  call void @_Z24toku_instr_mutex_destroyRP9PSI_mutex(ptr noundef nonnull align 8 dereferenceable(8) %5)
  call void @llvm.lifetime.start.p0(i64 4, ptr %3) #17
  %6 = load ptr, ptr %2, align 8, !tbaa !38
  %7 = getelementptr inbounds nuw %struct.toku_mutex_t, ptr %6, i32 0, i32 0
  %8 = call i32 @pthread_mutex_destroy(ptr noundef %7) #17
  store i32 %8, ptr %3, align 4, !tbaa !40
  call void @llvm.lifetime.end.p0(i64 4, ptr %3) #17
  ret void
}

; Function Attrs: mustprogress uwtable
define linkonce_odr void @_ZN4toku3omtIPNS_8locktreeES2_Lb0EE7destroyEv(ptr noundef nonnull align 8 dereferenceable(24) %0) #0 comdat align 2 {
  %2 = alloca ptr, align 8
  store ptr %0, ptr %2, align 8, !tbaa !34
  %3 = load ptr, ptr %2, align 8
  call void @_ZN4toku3omtIPNS_8locktreeES2_Lb0EE5clearEv(ptr noundef nonnull align 8 dereferenceable(24) %3)
  %4 = getelementptr inbounds nuw %"class.toku::omt", ptr %3, i32 0, i32 1
  store i32 0, ptr %4, align 4, !tbaa !52
  %5 = getelementptr inbounds nuw %"class.toku::omt", ptr %3, i32 0, i32 0
  %6 = load i8, ptr %5, align 8, !tbaa !48, !range !49, !noundef !50
  %7 = trunc i8 %6 to i1
  br i1 %7, label %8, label %20

8:                                                ; preds = %1
  %9 = getelementptr inbounds nuw %"class.toku::omt", ptr %3, i32 0, i32 2
  %10 = getelementptr inbounds nuw %"struct.toku::omt<toku::locktree *>::omt_array", ptr %9, i32 0, i32 2
  %11 = load ptr, ptr %10, align 8, !tbaa !51
  %12 = icmp ne ptr %11, null
  br i1 %12, label %13, label %17

13:                                               ; preds = %8
  %14 = getelementptr inbounds nuw %"class.toku::omt", ptr %3, i32 0, i32 2
  %15 = getelementptr inbounds nuw %"struct.toku::omt<toku::locktree *>::omt_array", ptr %14, i32 0, i32 2
  %16 = load ptr, ptr %15, align 8, !tbaa !51
  call void @_Z9toku_freePv(ptr noundef %16)
  br label %17

17:                                               ; preds = %13, %8
  %18 = getelementptr inbounds nuw %"class.toku::omt", ptr %3, i32 0, i32 2
  %19 = getelementptr inbounds nuw %"struct.toku::omt<toku::locktree *>::omt_array", ptr %18, i32 0, i32 2
  store ptr null, ptr %19, align 8, !tbaa !51
  br label %32

20:                                               ; preds = %1
  %21 = getelementptr inbounds nuw %"class.toku::omt", ptr %3, i32 0, i32 2
  %22 = getelementptr inbounds nuw %"struct.toku::omt<toku::locktree *>::omt_tree", ptr %21, i32 0, i32 2
  %23 = load ptr, ptr %22, align 8, !tbaa !51
  %24 = icmp ne ptr %23, null
  br i1 %24, label %25, label %29

25:                                               ; preds = %20
  %26 = getelementptr inbounds nuw %"class.toku::omt", ptr %3, i32 0, i32 2
  %27 = getelementptr inbounds nuw %"struct.toku::omt<toku::locktree *>::omt_tree", ptr %26, i32 0, i32 2
  %28 = load ptr, ptr %27, align 8, !tbaa !51
  call void @_Z9toku_freePv(ptr noundef %28)
  br label %29

29:                                               ; preds = %25, %20
  %30 = getelementptr inbounds nuw %"class.toku::omt", ptr %3, i32 0, i32 2
  %31 = getelementptr inbounds nuw %"struct.toku::omt<toku::locktree *>::omt_tree", ptr %30, i32 0, i32 2
  store ptr null, ptr %31, align 8, !tbaa !51
  br label %32

32:                                               ; preds = %29, %17
  ret void
}

; Function Attrs: mustprogress uwtable
define linkonce_odr noundef i32 @_ZNK4toku3omtIPNS_8locktreeES2_Lb0EE4sizeEv(ptr noundef nonnull align 8 dereferenceable(24) %0) #0 comdat align 2 {
  %2 = alloca i32, align 4
  %3 = alloca ptr, align 8
  store ptr %0, ptr %3, align 8, !tbaa !34
  %4 = load ptr, ptr %3, align 8
  %5 = getelementptr inbounds nuw %"class.toku::omt", ptr %4, i32 0, i32 0
  %6 = load i8, ptr %5, align 8, !tbaa !48, !range !49, !noundef !50
  %7 = trunc i8 %6 to i1
  br i1 %7, label %8, label %12

8:                                                ; preds = %1
  %9 = getelementptr inbounds nuw %"class.toku::omt", ptr %4, i32 0, i32 2
  %10 = getelementptr inbounds nuw %"struct.toku::omt<toku::locktree *>::omt_array", ptr %9, i32 0, i32 1
  %11 = load i32, ptr %10, align 4, !tbaa !51
  store i32 %11, ptr %2, align 4
  br label %16

12:                                               ; preds = %1
  %13 = getelementptr inbounds nuw %"class.toku::omt", ptr %4, i32 0, i32 2
  %14 = getelementptr inbounds nuw %"struct.toku::omt<toku::locktree *>::omt_tree", ptr %13, i32 0, i32 0
  %15 = call noundef i32 @_ZNK4toku3omtIPNS_8locktreeES2_Lb0EE7nweightERKNS_12omt_internal17subtree_templatedILb0EEE(ptr noundef nonnull align 8 dereferenceable(24) %4, ptr noundef nonnull align 4 dereferenceable(4) %14)
  store i32 %15, ptr %2, align 4
  br label %16

16:                                               ; preds = %12, %8
  %17 = load i32, ptr %2, align 4
  ret i32 %17
}

; Function Attrs: mustprogress uwtable
define void @_ZN4toku16locktree_manager17escalator_destroyEv(ptr noundef nonnull align 8 dereferenceable(392) %0) #0 align 2 {
  %2 = alloca ptr, align 8
  store ptr %0, ptr %2, align 8, !tbaa !4
  %3 = load ptr, ptr %2, align 8
  %4 = getelementptr inbounds nuw %"class.toku::locktree_manager", ptr %3, i32 0, i32 18
  call void @_ZN4toku16locktree_manager18locktree_escalator7destroyEv(ptr noundef nonnull align 8 dereferenceable(105) %4)
  %5 = getelementptr inbounds nuw %"class.toku::locktree_manager", ptr %3, i32 0, i32 10
  call void @_Z18toku_mutex_destroyP12toku_mutex_t(ptr noundef %5)
  ret void
}

; Function Attrs: mustprogress uwtable
define void @_ZN4toku16locktree_manager7destroyEv(ptr noundef nonnull align 8 dereferenceable(392) %0) #0 align 2 {
  %2 = alloca ptr, align 8
  store ptr %0, ptr %2, align 8, !tbaa !4
  %3 = load ptr, ptr %2, align 8
  call void @_ZN4toku16locktree_manager17escalator_destroyEv(ptr noundef nonnull align 8 dereferenceable(392) %3)
  %4 = getelementptr inbounds nuw %"class.toku::locktree_manager", ptr %3, i32 0, i32 7
  %5 = call noundef i32 @_ZNK4toku3omtIPNS_8locktreeES2_Lb0EE4sizeEv(ptr noundef nonnull align 8 dereferenceable(24) %4)
  %6 = getelementptr inbounds nuw %"class.toku::locktree_manager", ptr %3, i32 0, i32 7
  call void @_ZN4toku3omtIPNS_8locktreeES2_Lb0EE7destroyEv(ptr noundef nonnull align 8 dereferenceable(24) %6)
  %7 = getelementptr inbounds nuw %"class.toku::locktree_manager", ptr %3, i32 0, i32 9
  call void @_Z18toku_mutex_destroyP12toku_mutex_t(ptr noundef %7)
  ret void
}