; Function Attrs: mustprogress uwtable
define void @_ZN4toku16locktree_manager7destroyEv(ptr noundef nonnull align 8 dereferenceable(392) %0) local_unnamed_addr #0 align 2 {
  %2 = getelementptr inbounds nuw i8, ptr %0, i64 280
  %3 = getelementptr inbounds nuw i8, ptr %0, i64 328
  %4 = tail call i32 @pthread_cond_destroy(ptr noundef nonnull %3) #14
  %5 = tail call i32 @pthread_mutex_destroy(ptr noundef nonnull align 8 dereferenceable(105) %2) #14
  %6 = getelementptr inbounds nuw i8, ptr %0, i64 176
  %7 = tail call i32 @pthread_mutex_destroy(ptr noundef nonnull %6) #14
  %8 = getelementptr inbounds nuw i8, ptr %0, i64 88
  %9 = load i8, ptr %8, align 8, !tbaa !35, !range !42, !noundef !43
  %10 = trunc nuw i8 %9 to i1
  %11 = getelementptr inbounds nuw i8, ptr %0, i64 96
  %12 = getelementptr inbounds nuw i8, ptr %0, i64 100
  %13 = getelementptr inbounds nuw i8, ptr %0, i64 92
  %14 = getelementptr inbounds nuw i8, ptr %0, i64 104
  br i1 %10, label %17, label %15

15:                                               ; preds = %1
  store i32 -1, ptr %11, align 8, !tbaa !44
  store i32 0, ptr %12, align 4, !tbaa !13
  store i32 0, ptr %13, align 4, !tbaa !36
  %16 = load ptr, ptr %14, align 8, !tbaa !13
  %.not.i = icmp eq ptr %16, null
  br i1 %.not.i, label %_ZN4toku3omtIPNS_8locktreeES2_Lb0EE7destroyEv.exit, label %.sink.split.i

17:                                               ; preds = %1
  store i32 0, ptr %11, align 8, !tbaa !13
  store i32 0, ptr %12, align 4, !tbaa !13
  store i32 0, ptr %13, align 4, !tbaa !36
  %18 = load ptr, ptr %14, align 8, !tbaa !13
  %.not2.i = icmp eq ptr %18, null
  br i1 %.not2.i, label %_ZN4toku3omtIPNS_8locktreeES2_Lb0EE7destroyEv.exit, label %.sink.split.i

.sink.split.i:                                    ; preds = %15, %17
  %.sink.i = phi ptr [ %18, %17 ], [ %16, %15 ]
  tail call void @_Z9toku_freePv(ptr noundef nonnull %.sink.i)
  br label %_ZN4toku3omtIPNS_8locktreeES2_Lb0EE7destroyEv.exit

_ZN4toku3omtIPNS_8locktreeES2_Lb0EE7destroyEv.exit: ; preds = %17, %15, %.sink.split.i
  store ptr null, ptr %14, align 8, !tbaa !13
  %19 = getelementptr inbounds nuw i8, ptr %0, i64 128
  %20 = tail call i32 @pthread_mutex_destroy(ptr noundef nonnull %19) #14
  ret void
}